Certificate:
    Data:
        Version: 3 (0x2)
        Serial Number:
            aa:fe:13:5f:f5:ce:33:14:63:ee:56:aa:e8:5b:08:35
        Signature Algorithm: sha256WithRSAEncryption
        Issuer: CN=Example-CA
        Validity
            Not Before: Mar 21 15:35:12 2021 GMT
            Not After : Jun 24 15:35:12 2023 GMT
        Subject: C=DE, ST=NRW, L=Lab City, O=Lab, OU=Lab, CN=ldap.okd.example.com
        Subject Public Key Info:
            Public Key Algorithm: rsaEncryption
                RSA Public-Key: (2048 bit)
                Modulus:
                    00:c7:11:26:d6:e8:f0:47:a4:4d:56:8e:05:5b:45:
                    1c:5e:0e:d7:cd:d0:4f:54:aa:96:bc:66:f1:bf:c2:
                    b8:4c:b5:d6:87:3f:8a:98:de:06:56:1d:37:da:a3:
                    48:3a:dd:1b:b2:85:c4:d8:8a:55:05:67:9d:11:e6:
                    e2:bf:c4:33:a4:63:38:30:86:ea:ab:71:ab:52:74:
                    c4:10:ec:4a:4c:0a:26:2b:15:47:d6:18:c4:d4:60:
                    3c:1b:f7:7c:07:f1:eb:c9:1e:7a:a4:ea:69:20:eb:
                    ec:f4:83:05:45:f9:ae:2b:02:bb:2b:f1:11:4b:3b:
                    fb:cf:59:44:35:8e:f3:a5:ac:ed:05:74:7e:a1:3b:
                    e3:49:5a:8c:06:5d:1c:49:b4:d8:eb:eb:c1:66:be:
                    76:c8:d8:37:66:b4:d1:1b:f6:96:fa:d3:0b:1d:9b:
                    a7:12:1c:2d:a2:95:6b:46:60:d6:9a:a2:73:8c:15:
                    49:05:e3:05:8a:a2:00:e2:3f:cb:9f:a8:36:8d:e2:
                    48:a7:6e:70:d3:c0:b0:26:03:06:dd:5d:aa:f9:4f:
                    6b:68:47:9f:e6:8d:58:3a:9d:5d:a5:28:de:c5:d4:
                    5f:d3:a5:d2:d4:ca:87:5a:76:82:59:df:c0:a8:e6:
                    42:32:2c:0e:98:d6:82:f7:68:7a:7e:fd:4c:2d:27:
                    96:31
                Exponent: 65537 (0x10001)
        X509v3 extensions:
            X509v3 Basic Constraints: 
                CA:FALSE
            X509v3 Subject Key Identifier: 
                35:C0:5D:E5:74:9B:58:B7:53:FC:4C:42:5F:0D:E9:A4:D8:EB:94:9C
            X509v3 Authority Key Identifier: 
                keyid:6F:94:2B:09:31:CD:32:89:13:5D:C0:4B:65:90:B8:C5:98:1C:1C:C7
                DirName:/CN=Example-CA
                serial:2E:A2:D3:89:E8:3C:EB:86:BF:4A:09:9D:B3:CA:FB:C7:A8:97:42:9E

            X509v3 Extended Key Usage: 
                TLS Web Server Authentication
            X509v3 Key Usage: 
                Digital Signature, Key Encipherment
            X509v3 Subject Alternative Name: 
                DNS:ldap.okd.example.com
    Signature Algorithm: sha256WithRSAEncryption
         8f:23:b8:fe:40:99:dc:d9:d5:46:6a:1a:38:75:be:9b:53:b6:
         cb:1e:26:ad:30:e3:a9:4d:7a:6d:69:ff:a2:bf:3d:e4:05:52:
         16:78:f2:92:6c:aa:32:c6:4d:d5:f7:47:fd:f0:3f:ee:c0:b1:
         d7:ed:5a:c6:bd:69:1c:09:57:9f:0f:7e:da:67:c1:c3:07:0b:
         15:f4:8b:a0:ac:13:0a:49:42:d8:01:1e:fc:37:f3:99:c7:da:
         47:d7:17:47:a3:db:52:67:bd:7e:de:56:7e:ef:0a:99:4a:66:
         4f:8e:af:00:52:53:bb:74:2c:10:04:7d:29:75:b7:14:81:dd:
         a6:97:7a:57:e3:64:ae:f2:a7:df:42:03:3f:62:e1:46:0d:5c:
         62:a1:bf:50:20:52:ee:22:35:de:7e:ba:90:18:31:c9:77:81:
         4f:63:01:b5:5f:27:36:10:51:47:76:81:43:ca:df:f7:9e:4e:
         39:7f:f5:cc:92:36:e4:16:3b:04:7f:8e:89:6d:a7:1b:f3:51:
         6e:f8:1f:7d:64:5a:af:ed:d8:35:7b:66:d8:0e:7b:89:ea:8d:
         22:fd:c2:ba:d1:9e:58:a4:2a:97:cb:b5:fe:e1:23:0e:f0:d9:
         7e:e0:4e:dc:f1:cd:f6:a4:5f:01:ff:86:b7:36:54:38:9a:27:
         48:03:13:39
-----BEGIN CERTIFICATE-----
MIIDzDCCArSgAwIBAgIRAKr+E1/1zjMUY+5WquhbCDUwDQYJKoZIhvcNAQELBQAw
FTETMBEGA1UEAwwKRXhhbXBsZS1DQTAeFw0yMTAzMjExNTM1MTJaFw0yMzA2MjQx
NTM1MTJaMGkxCzAJBgNVBAYTAkRFMQwwCgYDVQQIDANOUlcxETAPBgNVBAcMCExh
YiBDaXR5MQwwCgYDVQQKDANMYWIxDDAKBgNVBAsMA0xhYjEdMBsGA1UEAwwUbGRh
cC5va2QuZXhhbXBsZS5jb20wggEiMA0GCSqGSIb3DQEBAQUAA4IBDwAwggEKAoIB
AQDHESbW6PBHpE1WjgVbRRxeDtfN0E9Uqpa8ZvG/wrhMtdaHP4qY3gZWHTfao0g6
3RuyhcTYilUFZ50R5uK/xDOkYzgwhuqrcatSdMQQ7EpMCiYrFUfWGMTUYDwb93wH
8evJHnqk6mkg6+z0gwVF+a4rArsr8RFLO/vPWUQ1jvOlrO0FdH6hO+NJWowGXRxJ
tNjr68FmvnbI2DdmtNEb9pb60wsdm6cSHC2ilWtGYNaaonOMFUkF4wWKogDiP8uf
qDaN4kinbnDTwLAmAwbdXar5T2toR5/mjVg6nV2lKN7F1F/TpdLUyodadoJZ38Co
5kIyLA6Y1oL3aHp+/UwtJ5YxAgMBAAGjgcIwgb8wCQYDVR0TBAIwADAdBgNVHQ4E
FgQUNcBd5XSbWLdT/ExCXw3ppNjrlJwwUAYDVR0jBEkwR4AUb5QrCTHNMokTXcBL
ZZC4xZgcHMehGaQXMBUxEzARBgNVBAMMCkV4YW1wbGUtQ0GCFC6i04noPOuGv0oJ
nbPK+8eol0KeMBMGA1UdJQQMMAoGCCsGAQUFBwMBMAsGA1UdDwQEAwIFoDAfBgNV
HREEGDAWghRsZGFwLm9rZC5leGFtcGxlLmNvbTANBgkqhkiG9w0BAQsFAAOCAQEA
jyO4/kCZ3NnVRmoaOHW+m1O2yx4mrTDjqU16bWn/or895AVSFnjykmyqMsZN1fdH
/fA/7sCx1+1axr1pHAlXnw9+2mfBwwcLFfSLoKwTCklC2AEe/DfzmcfaR9cXR6Pb
Ume9ft5Wfu8KmUpmT46vAFJTu3QsEAR9KXW3FIHdppd6V+NkrvKn30IDP2LhRg1c
YqG/UCBS7iI13n66kBgxyXeBT2MBtV8nNhBRR3aBQ8rf955OOX/1zJI25BY7BH+O
iW2nG/NRbvgffWRar+3YNXtm2A57ieqNIv3CutGeWKQql8u1/uEjDvDZfuBO3PHN
9qRfAf+GtzZUOJonSAMTOQ==
-----END CERTIFICATE-----
